#include <math.h>
#include <stdio.h>
#include <stdlib.h>
#include <string.h>

int main()
{
   char s[101],t[101];
   int n,i,j=0;
   gets(s);
   n=strlen(s);
   for(i=0;i<n;i++){  
        if(s[i]!=' '){
     t[j]=s[i];j++;}
    else if(s[i]==' '&&s[i+1]==' '){
      continue;}
    else{
       t[j]=s[i];j++;}}
     t[j]='\0';
    printf("%s",t);
    return 0;
}